; Function Attrs: mustprogress nofree norecurse nosync nounwind willreturn memory(read, inaccessiblemem: none) uwtable
define internal noundef ptr @_ZNK32pxrInternal_v0_24__pxrReserved__8TfNotice18_StandardDelivererINS0_10_DelivererINS_9TfWeakPtrIZL18_TestSdfFpsAndTcpsvE15_ChangeListenerEENS3_INS_8SdfLayerEEEMS4_FvRKNS_9SdfNotice18LayerInfoDidChangeEES9_EEE17GetSenderWeakBaseEv(ptr nocapture noundef nonnull readonly align 8 dereferenceable(34) %0) unnamed_addr #18 align 2 {
  %2 = getelementptr inbounds i8, ptr %0, i64 64
  %3 = load ptr, ptr %2, align 8
  %.not.i.i.i.i.i = icmp eq ptr %3, null
  br i1 %.not.i.i.i.i.i, label %_ZNK32pxrInternal_v0_24__pxrReserved__15TfWeakPtrFacadeINS_9TfWeakPtrENS_8SdfLayerEEcvMS3_KFPS2_vEEv.exit, label %_ZNK32pxrInternal_v0_24__pxrReserved__15TfWeakPtrFacadeINS_9TfWeakPtrENS_8SdfLayerEEcvMS3_KFPS2_vEEv.exit.thread

_ZNK32pxrInternal_v0_24__pxrReserved__15TfWeakPtrFacadeINS_9TfWeakPtrENS_8SdfLayerEEcvMS3_KFPS2_vEEv.exit.thread: ; preds = %1
  %4 = getelementptr inbounds nuw i8, ptr %0, i64 56
  %5 = getelementptr inbounds nuw i8, ptr %3, i64 14
  %6 = load i8, ptr %5, align 2
  %7 = trunc i8 %6 to i1
  %8 = load ptr, ptr %4, align 8
  %9 = icmp ne ptr %8, null
  %.not1.i.not = select i1 %7, i1 %9, i1 false
  %10 = getelementptr inbounds i8, ptr %8, i64 16
  %spec.select = select i1 %.not1.i.not, ptr %10, ptr null
  br label %_ZNK32pxrInternal_v0_24__pxrReserved__15TfWeakPtrFacadeINS_9TfWeakPtrENS_8SdfLayerEEcvMS3_KFPS2_vEEv.exit

_ZNK32pxrInternal_v0_24__pxrReserved__15TfWeakPtrFacadeINS_9TfWeakPtrENS_8SdfLayerEEcvMS3_KFPS2_vEEv.exit: ; preds = %_ZNK32pxrInternal_v0_24__pxrReserved__15TfWeakPtrFacadeINS_9TfWeakPtrENS_8SdfLayerEEcvMS3_KFPS2_vEEv.exit.thread, %1
  %11 = phi ptr [ null, %1 ], [ %spec.select, %_ZNK32pxrInternal_v0_24__pxrReserved__15TfWeakPtrFacadeINS_9TfWeakPtrENS_8SdfLayerEEcvMS3_KFPS2_vEEv.exit.thread ]
  ret ptr %11
}